target datalayout = "e-m:e-p270:32:32-p271:32:32-p272:64:64-i64:64-i128:128-f80:128-n8:16:32:64-S128"
target triple = "x86_64-pc-linux-gnu"

; Function Attrs: mustprogress nounwind uwtable
define void @mi_heap_collect(ptr noundef %0, i1 noundef zeroext %1) #5 personality ptr @__gxx_personality_v0 {
  %3 = alloca ptr, align 8
  %4 = alloca i8, align 1
  store ptr %0, ptr %3, align 8, !tbaa !42
  %5 = zext i1 %1 to i8
  store i8 %5, ptr %4, align 1, !tbaa !23
  %6 = load ptr, ptr %3, align 8, !tbaa !42
  %7 = load i8, ptr %4, align 1, !tbaa !23, !range !25, !noundef !26
  %8 = trunc i8 %7 to i1
  %9 = select i1 %8, i32 1, i32 0
  invoke void @_ZL18mi_heap_collect_exP9mi_heap_s12mi_collect_e(ptr noundef %6, i32 noundef %9)
          to label %10 unwind label %11

10:                                               ; preds = %2
  ret void

11:                                               ; preds = %2
  %12 = landingpad { ptr, i32 }
          catch ptr null
  %13 = extractvalue { ptr, i32 } %12, 0
  call void @__clang_call_terminate(ptr %13) #20
  unreachable
}