; Function Attrs: mustprogress nounwind uwtable
define void @mi_heap_collect(ptr noundef %0, i1 noundef zeroext %1) local_unnamed_addr #3 personality ptr @__gxx_personality_v0 {
  %3 = zext i1 %1 to i32
  invoke fastcc void @_ZL18mi_heap_collect_exP9mi_heap_s12mi_collect_e(ptr noundef %0, i32 noundef %3)
          to label %4 unwind label %5

4:                                                ; preds = %2
  ret void

5:                                                ; preds = %2
  %6 = landingpad { ptr, i32 }
          catch ptr null
  %7 = extractvalue { ptr, i32 } %6, 0
  tail call void @__clang_call_terminate(ptr %7) #56
  unreachable
}